target datalayout = "e-m:e-p270:32:32-p271:32:32-p272:64:64-i64:64-i128:128-f80:128-n8:16:32:64-S128"
target triple = "x86_64-pc-linux-gnu"

%struct._zend_executor_globals = type { %struct._zval_struct, %struct._zval_struct, [32 x ptr], ptr, ptr, %struct._zend_array, %struct._zend_array, ptr, i32, i8, %struct._zval_struct, i32, ptr, ptr, ptr, ptr, ptr, ptr, i64, ptr, ptr, i32, ptr, i32, i64, i32, i32, i32, i8, i8, %struct.zend_atomic_bool_s, %struct.zend_atomic_bool_s, ptr, i64, ptr, ptr, %struct._zend_array, %struct._zend_array, i32, i8, %struct._zval_struct, %struct._zval_struct, %struct._zend_stack, %struct._zend_stack, %struct._zend_stack, ptr, i32, i32, i64, ptr, ptr, ptr, %struct._zend_objects_store, %struct._zend_lazy_objects_store, ptr, ptr, ptr, [3 x %struct._zend_op], ptr, i8, i8, i64, i32, i32, ptr, [16 x %struct._HashTableIterator], ptr, %union._zend_function, %struct._zend_op, %struct._zend_array, i64, %struct.zend_get_gc_buffer, ptr, ptr, ptr, i64, i8, i32, ptr, ptr, i64, %struct._zend_call_stack, i64, i64, %struct._zend_strtod_state, [6 x ptr] }
%struct.zend_atomic_bool_s = type { i8 }
%struct._zval_struct = type { %union._zend_value, %union.anon, %union.anon.3 }
%union._zend_value = type { i64 }
%union.anon = type { i32 }
%union.anon.3 = type { i32 }
%struct._zend_stack = type { i32, i32, i32, ptr }
%struct._zend_objects_store = type { ptr, i32, i32, i32 }
%struct._zend_lazy_objects_store = type { %struct._zend_array }
%struct._HashTableIterator = type { ptr, i32, i32 }
%union._zend_function = type { %struct._zend_op_array }
%struct._zend_op_array = type { i8, [3 x i8], i32, ptr, ptr, ptr, i32, i32, ptr, ptr, ptr, ptr, i32, ptr, i32, i32, i32, ptr, ptr, ptr, ptr, ptr, i32, i32, ptr, ptr, ptr, i32, i32, i32, i32, ptr, ptr, [6 x ptr] }
%struct._zend_op = type { ptr, %union._znode_op, %union._znode_op, %union._znode_op, i32, i32, i8, i8, i8, i8 }
%union._znode_op = type { i32 }
%struct._zend_array = type { %struct._zend_refcounted_h, %union.anon.5, i32, %union.anon.7, i32, i32, i32, i32, i64, ptr }
%struct._zend_refcounted_h = type { i32, %union.anon.4 }
%union.anon.4 = type { i32 }
%union.anon.5 = type { i32 }
%union.anon.7 = type { ptr }
%struct.zend_get_gc_buffer = type { ptr, ptr, ptr }
%struct._zend_call_stack = type { ptr, i64 }
%struct._zend_strtod_state = type { [8 x ptr], ptr, ptr }
%struct._zend_llist = type { ptr, ptr, i64, i64, ptr, i8, ptr }
%struct._zend_compiler_globals = type { %struct._zend_stack, ptr, ptr, i32, ptr, ptr, ptr, ptr, i8, i8, i8, i8, i8, %struct._zend_llist, ptr, i8, i8, i8, i8, ptr, i32, i32, %struct._zend_oparray_context, %struct._zend_file_context, ptr, %struct._zend_array, ptr, i64, i8, i8, i8, ptr, ptr, %struct._zend_stack, ptr, i32, ptr, ptr, i64, i64, ptr, ptr, ptr, ptr, i32, ptr, i32, %struct._zend_stack }
%struct._zend_oparray_context = type { ptr, ptr, i32, i32, i32, i32, i32, i32, i32, ptr, ptr, ptr, i32, i8 }
%struct._zend_file_context = type { %struct._zend_declarables, ptr, i8, i8, ptr, ptr, ptr, %struct._zend_array }
%struct._zend_declarables = type { i64 }
%struct._zend_string = type { %struct._zend_refcounted_h, i64, i64, [1 x i8] }
%struct._zend_script = type { ptr, %struct._zend_op_array, %struct._zend_array, %struct._zend_array }
%struct._zend_class_entry = type { i8, ptr, %union.anon.9, i32, i32, i32, i32, ptr, ptr, ptr, %struct._zend_array, %struct._zend_array, %struct._zend_array, ptr, ptr, ptr, ptr, ptr, ptr, ptr, ptr, ptr, ptr, ptr, ptr, ptr, ptr, ptr, ptr, ptr, ptr, ptr, %union.anon.10, ptr, ptr, ptr, ptr, i32, i32, i32, i32, %union.anon.11, ptr, ptr, ptr, ptr, i32, ptr, ptr, %union.anon.12 }
%union.anon.9 = type { ptr }
%union.anon.10 = type { ptr }
%union.anon.11 = type { ptr }
%union.anon.12 = type { %struct.anon.13 }
%struct.anon.13 = type { ptr, i32, i32 }

@executor_globals = external global %struct._zend_executor_globals, align 8
@compiler_globals = external global %struct._zend_compiler_globals, align 8

; Function Attrs: nounwind uwtable
define internal zeroext i1 @zend_optimizer_ignore_class(ptr noundef %0, ptr noundef %1) #0 {
  %3 = alloca i1, align 1
  %4 = alloca ptr, align 8
  %5 = alloca ptr, align 8
  %6 = alloca ptr, align 8
  %7 = alloca ptr, align 8
  %8 = alloca i64, align 8
  %9 = alloca i32, align 4
  store ptr %0, ptr %4, align 8, !tbaa !9
  store ptr %1, ptr %5, align 8, !tbaa !31
  call void @llvm.lifetime.start.p0(i64 8, ptr %6) #13
  %10 = load ptr, ptr %4, align 8, !tbaa !9
  %11 = getelementptr inbounds nuw %struct._zval_struct, ptr %10, i32 0, i32 0
  %12 = load ptr, ptr %11, align 8, !tbaa !17
  store ptr %12, ptr %6, align 8, !tbaa !130
  %13 = load ptr, ptr %6, align 8, !tbaa !130
  %14 = getelementptr inbounds nuw %struct._zend_class_entry, ptr %13, i32 0, i32 4
  %15 = load i32, ptr %14, align 4, !tbaa !154
  %16 = and i32 %15, 1024
  %17 = icmp ne i32 %16, 0
  br i1 %17, label %18, label %40

18:                                               ; preds = %2
  call void @llvm.lifetime.start.p0(i64 8, ptr %7) #13
  %19 = load ptr, ptr %4, align 8, !tbaa !9
  %20 = ptrtoint ptr %19 to i64
  %21 = sub i64 %20, 0
  %22 = inttoptr i64 %21 to ptr
  store ptr %22, ptr %7, align 8, !tbaa !155
  call void @llvm.lifetime.start.p0(i64 8, ptr %8) #13
  %23 = load ptr, ptr %7, align 8, !tbaa !155
  %24 = load ptr, ptr getelementptr inbounds nuw (%struct._zend_executor_globals, ptr @executor_globals, i32 0, i32 13), align 8, !tbaa !157
  %25 = getelementptr inbounds nuw %struct._zend_array, ptr %24, i32 0, i32 3
  %26 = load ptr, ptr %25, align 8, !tbaa !17
  %27 = ptrtoint ptr %23 to i64
  %28 = ptrtoint ptr %26 to i64
  %29 = sub i64 %27, %28
  %30 = sdiv exact i64 %29, 32
  store i64 %30, ptr %8, align 8, !tbaa !20
  %31 = load i64, ptr %8, align 8, !tbaa !20
  %32 = load i32, ptr getelementptr inbounds nuw (%struct._zend_executor_globals, ptr @executor_globals, i32 0, i32 27), align 8, !tbaa !158
  %33 = zext i32 %32 to i64
  %34 = icmp ult i64 %31, %33
  br i1 %34, label %35, label %36

35:                                               ; preds = %18
  store i1 false, ptr %3, align 1
  store i32 1, ptr %9, align 4
  br label %37

36:                                               ; preds = %18
  store i32 0, ptr %9, align 4
  br label %37

37:                                               ; preds = %36, %35
  call void @llvm.lifetime.end.p0(i64 8, ptr %8) #13
  call void @llvm.lifetime.end.p0(i64 8, ptr %7) #13
  %38 = load i32, ptr %9, align 4
  switch i32 %38, label %63 [
    i32 0, label %39
  ]

39:                                               ; preds = %37
  br label %40

40:                                               ; preds = %39, %2
  %41 = load ptr, ptr %6, align 8, !tbaa !130
  %42 = getelementptr inbounds nuw %struct._zend_class_entry, ptr %41, i32 0, i32 0
  %43 = load i8, ptr %42, align 8, !tbaa !159
  %44 = sext i8 %43 to i32
  %45 = icmp eq i32 %44, 2
  br i1 %45, label %46, label %61

46:                                               ; preds = %40
  %47 = load ptr, ptr %6, align 8, !tbaa !130
  %48 = getelementptr inbounds nuw %struct._zend_class_entry, ptr %47, i32 0, i32 49
  %49 = getelementptr inbounds nuw %struct.anon.13, ptr %48, i32 0, i32 0
  %50 = load ptr, ptr %49, align 8, !tbaa !17
  %51 = icmp ne ptr %50, null
  br i1 %51, label %52, label %59

52:                                               ; preds = %46
  %53 = load ptr, ptr %6, align 8, !tbaa !130
  %54 = getelementptr inbounds nuw %struct._zend_class_entry, ptr %53, i32 0, i32 49
  %55 = getelementptr inbounds nuw %struct.anon.13, ptr %54, i32 0, i32 0
  %56 = load ptr, ptr %55, align 8, !tbaa !17
  %57 = load ptr, ptr %5, align 8, !tbaa !31
  %58 = icmp ne ptr %56, %57
  br label %59

59:                                               ; preds = %52, %46
  %60 = phi i1 [ true, %46 ], [ %58, %52 ]
  br label %61

61:                                               ; preds = %59, %40
  %62 = phi i1 [ false, %40 ], [ %60, %59 ]
  store i1 %62, ptr %3, align 1
  store i32 1, ptr %9, align 4
  br label %63

63:                                               ; preds = %61, %37
  call void @llvm.lifetime.end.p0(i64 8, ptr %6) #13
  %64 = load i1, ptr %3, align 1
  ret i1 %64
}

; Function Attrs: alwaysinline nounwind uwtable
define internal ptr @zend_hash_find_ptr(ptr noundef %0, ptr noundef %1) #1 {
  %3 = alloca ptr, align 8
  %4 = alloca ptr, align 8
  %5 = alloca ptr, align 8
  %6 = alloca ptr, align 8
  %7 = alloca i32, align 4
  store ptr %0, ptr %4, align 8, !tbaa !96
  store ptr %1, ptr %5, align 8, !tbaa !31
  call void @llvm.lifetime.start.p0(i64 8, ptr %6) #13
  %8 = load ptr, ptr %4, align 8, !tbaa !96
  %9 = load ptr, ptr %5, align 8, !tbaa !31
  %10 = call ptr @zend_hash_find(ptr noundef %8, ptr noundef %9)
  store ptr %10, ptr %6, align 8, !tbaa !9
  %11 = load ptr, ptr %6, align 8, !tbaa !9
  %12 = icmp ne ptr %11, null
  br i1 %12, label %13, label %21

13:                                               ; preds = %2
  %14 = load ptr, ptr %6, align 8, !tbaa !9
  %15 = getelementptr inbounds nuw %struct._zval_struct, ptr %14, i32 0, i32 0
  %16 = load ptr, ptr %15, align 8, !tbaa !17
  %17 = icmp ne ptr %16, null
  call void @llvm.assume(i1 %17)
  %18 = load ptr, ptr %6, align 8, !tbaa !9
  %19 = getelementptr inbounds nuw %struct._zval_struct, ptr %18, i32 0, i32 0
  %20 = load ptr, ptr %19, align 8, !tbaa !17
  store ptr %20, ptr %3, align 8
  store i32 1, ptr %7, align 4
  br label %22

21:                                               ; preds = %2
  store ptr null, ptr %3, align 8
  store i32 1, ptr %7, align 4
  br label %22

22:                                               ; preds = %21, %13
  call void @llvm.lifetime.end.p0(i64 8, ptr %6) #13
  %23 = load ptr, ptr %3, align 8
  ret ptr %23
}

; Function Attrs: nounwind uwtable
define hidden ptr @zend_optimizer_get_class_entry(ptr noundef %0, ptr noundef %1, ptr noundef %2) #0 {
  %4 = alloca ptr, align 8
  %5 = alloca ptr, align 8
  %6 = alloca ptr, align 8
  %7 = alloca ptr, align 8
  %8 = alloca ptr, align 8
  %9 = alloca i32, align 4
  %10 = alloca ptr, align 8
  store ptr %0, ptr %5, align 8, !tbaa !129
  store ptr %1, ptr %6, align 8, !tbaa !98
  store ptr %2, ptr %7, align 8, !tbaa !31
  call void @llvm.lifetime.start.p0(i64 8, ptr %8) #13
  %11 = load ptr, ptr %5, align 8, !tbaa !129
  %12 = icmp ne ptr %11, null
  br i1 %12, label %13, label %18

13:                                               ; preds = %3
  %14 = load ptr, ptr %5, align 8, !tbaa !129
  %15 = getelementptr inbounds nuw %struct._zend_script, ptr %14, i32 0, i32 3
  %16 = load ptr, ptr %7, align 8, !tbaa !31
  %17 = call ptr @zend_hash_find_ptr(ptr noundef %15, ptr noundef %16)
  br label %19

18:                                               ; preds = %3
  br label %19

19:                                               ; preds = %18, %13
  %20 = phi ptr [ %17, %13 ], [ null, %18 ]
  store ptr %20, ptr %8, align 8, !tbaa !130
  %21 = load ptr, ptr %8, align 8, !tbaa !130
  %22 = icmp ne ptr %21, null
  br i1 %22, label %23, label %25

23:                                               ; preds = %19
  %24 = load ptr, ptr %8, align 8, !tbaa !130
  store ptr %24, ptr %4, align 8
  store i32 1, ptr %9, align 4
  br label %96

25:                                               ; preds = %19
  call void @llvm.lifetime.start.p0(i64 8, ptr %10) #13
  %26 = load ptr, ptr getelementptr inbounds nuw (%struct._zend_compiler_globals, ptr @compiler_globals, i32 0, i32 6), align 8, !tbaa !131
  %27 = load ptr, ptr %7, align 8, !tbaa !31
  %28 = call ptr @zend_hash_find(ptr noundef %26, ptr noundef %27)
  store ptr %28, ptr %10, align 8, !tbaa !9
  %29 = load ptr, ptr %10, align 8, !tbaa !9
  %30 = icmp ne ptr %29, null
  br i1 %30, label %31, label %47

31:                                               ; preds = %25
  %32 = load ptr, ptr %10, align 8, !tbaa !9
  %33 = load ptr, ptr %6, align 8, !tbaa !98
  %34 = icmp ne ptr %33, null
  br i1 %34, label %35, label %39

35:                                               ; preds = %31
  %36 = load ptr, ptr %6, align 8, !tbaa !98
  %37 = getelementptr inbounds nuw %struct._zend_op_array, ptr %36, i32 0, i32 26
  %38 = load ptr, ptr %37, align 8, !tbaa !141
  br label %40

39:                                               ; preds = %31
  br label %40

40:                                               ; preds = %39, %35
  %41 = phi ptr [ %38, %35 ], [ null, %39 ]
  %42 = call zeroext i1 @zend_optimizer_ignore_class(ptr noundef %32, ptr noundef %41)
  br i1 %42, label %47, label %43

43:                                               ; preds = %40
  %44 = load ptr, ptr %10, align 8, !tbaa !9
  %45 = getelementptr inbounds nuw %struct._zval_struct, ptr %44, i32 0, i32 0
  %46 = load ptr, ptr %45, align 8, !tbaa !17
  store ptr %46, ptr %4, align 8
  store i32 1, ptr %9, align 4
  br label %95

47:                                               ; preds = %40, %25
  %48 = load ptr, ptr %6, align 8, !tbaa !98
  %49 = icmp ne ptr %48, null
  br i1 %49, label %50, label %94

50:                                               ; preds = %47
  %51 = load ptr, ptr %6, align 8, !tbaa !98
  %52 = getelementptr inbounds nuw %struct._zend_op_array, ptr %51, i32 0, i32 4
  %53 = load ptr, ptr %52, align 8, !tbaa !142
  %54 = icmp ne ptr %53, null
  br i1 %54, label %55, label %94

55:                                               ; preds = %50
  %56 = load ptr, ptr %6, align 8, !tbaa !98
  %57 = getelementptr inbounds nuw %struct._zend_op_array, ptr %56, i32 0, i32 4
  %58 = load ptr, ptr %57, align 8, !tbaa !142
  %59 = getelementptr inbounds nuw %struct._zend_class_entry, ptr %58, i32 0, i32 1
  %60 = load ptr, ptr %59, align 8, !tbaa !143
  %61 = getelementptr inbounds nuw %struct._zend_string, ptr %60, i32 0, i32 2
  %62 = load i64, ptr %61, align 8, !tbaa !39
  %63 = load ptr, ptr %7, align 8, !tbaa !31
  %64 = getelementptr inbounds nuw %struct._zend_string, ptr %63, i32 0, i32 2
  %65 = load i64, ptr %64, align 8, !tbaa !39
  %66 = icmp eq i64 %62, %65
  br i1 %66, label %67, label %94

67:                                               ; preds = %55
  %68 = load ptr, ptr %6, align 8, !tbaa !98
  %69 = getelementptr inbounds nuw %struct._zend_op_array, ptr %68, i32 0, i32 4
  %70 = load ptr, ptr %69, align 8, !tbaa !142
  %71 = getelementptr inbounds nuw %struct._zend_class_entry, ptr %70, i32 0, i32 1
  %72 = load ptr, ptr %71, align 8, !tbaa !143
  %73 = getelementptr inbounds nuw %struct._zend_string, ptr %72, i32 0, i32 3
  %74 = getelementptr inbounds [1 x i8], ptr %73, i64 0, i64 0
  %75 = load ptr, ptr %6, align 8, !tbaa !98
  %76 = getelementptr inbounds nuw %struct._zend_op_array, ptr %75, i32 0, i32 4
  %77 = load ptr, ptr %76, align 8, !tbaa !142
  %78 = getelementptr inbounds nuw %struct._zend_class_entry, ptr %77, i32 0, i32 1
  %79 = load ptr, ptr %78, align 8, !tbaa !143
  %80 = getelementptr inbounds nuw %struct._zend_string, ptr %79, i32 0, i32 2
  %81 = load i64, ptr %80, align 8, !tbaa !39
  %82 = load ptr, ptr %7, align 8, !tbaa !31
  %83 = getelementptr inbounds nuw %struct._zend_string, ptr %82, i32 0, i32 3
  %84 = getelementptr inbounds [1 x i8], ptr %83, i64 0, i64 0
  %85 = load ptr, ptr %7, align 8, !tbaa !31
  %86 = getelementptr inbounds nuw %struct._zend_string, ptr %85, i32 0, i32 2
  %87 = load i64, ptr %86, align 8, !tbaa !39
  %88 = call i32 @zend_binary_strcasecmp(ptr noundef %74, i64 noundef %81, ptr noundef %84, i64 noundef %87)
  %89 = icmp ne i32 %88, 0
  br i1 %89, label %94, label %90

90:                                               ; preds = %67
  %91 = load ptr, ptr %6, align 8, !tbaa !98
  %92 = getelementptr inbounds nuw %struct._zend_op_array, ptr %91, i32 0, i32 4
  %93 = load ptr, ptr %92, align 8, !tbaa !142
  store ptr %93, ptr %4, align 8
  store i32 1, ptr %9, align 4
  br label %95

94:                                               ; preds = %67, %55, %50, %47
  store ptr null, ptr %4, align 8
  store i32 1, ptr %9, align 4
  br label %95

95:                                               ; preds = %94, %90, %43
  call void @llvm.lifetime.end.p0(i64 8, ptr %10) #13
  br label %96

96:                                               ; preds = %95, %23
  call void @llvm.lifetime.end.p0(i64 8, ptr %8) #13
  %97 = load ptr, ptr %4, align 8
  ret ptr %97
}