; Function Attrs: nounwind uwtable
define hidden ptr @zend_optimizer_get_class_entry(ptr noundef %0, ptr noundef readonly captures(address_is_null) %1, ptr noundef %2) local_unnamed_addr #0 {
  %.not = icmp eq ptr %0, null
  br i1 %.not, label %8, label %4

4:                                                ; preds = %3
  %5 = getelementptr inbounds nuw i8, ptr %0, i64 320
  %6 = tail call ptr @zend_hash_find(ptr noundef nonnull %5, ptr noundef %2) #20
  %.not.i = icmp eq ptr %6, null
  br i1 %.not.i, label %8, label %zend_hash_find_ptr.exit

zend_hash_find_ptr.exit:                          ; preds = %4
  %7 = load ptr, ptr %6, align 8, !tbaa !20, !nonnull !57, !noundef !57
  br label %zend_optimizer_ignore_class.exit.thread

8:                                                ; preds = %3, %4
  %9 = load ptr, ptr getelementptr inbounds nuw (i8, ptr @compiler_globals, i64 64), align 8, !tbaa !108
  %10 = tail call ptr @zend_hash_find(ptr noundef %9, ptr noundef %2) #20
  %.not30 = icmp eq ptr %10, null
  br i1 %.not30, label %37, label %11

11:                                               ; preds = %8
  %.not31 = icmp eq ptr %1, null
  br i1 %.not31, label %15, label %12

12:                                               ; preds = %11
  %13 = getelementptr inbounds nuw i8, ptr %1, i64 168
  %14 = load ptr, ptr %13, align 8, !tbaa !119
  br label %15

15:                                               ; preds = %11, %12
  %16 = phi ptr [ %14, %12 ], [ null, %11 ]
  %17 = load ptr, ptr %10, align 8, !tbaa !20
  %18 = getelementptr inbounds nuw i8, ptr %17, i64 28
  %19 = load i32, ptr %18, align 4, !tbaa !120
  %20 = and i32 %19, 1024
  %.not.i35 = icmp eq i32 %20, 0
  br i1 %.not.i35, label %31, label %21

21:                                               ; preds = %15
  %22 = ptrtoint ptr %10 to i64
  %23 = load ptr, ptr getelementptr inbounds nuw (i8, ptr @executor_globals, i64 464), align 8, !tbaa !131
  %24 = getelementptr inbounds nuw i8, ptr %23, i64 16
  %25 = load ptr, ptr %24, align 8, !tbaa !20
  %26 = ptrtoint ptr %25 to i64
  %27 = sub i64 %22, %26
  %28 = ashr exact i64 %27, 5
  %29 = load i32, ptr getelementptr inbounds nuw (i8, ptr @executor_globals, i64 568), align 8, !tbaa !132
  %30 = zext i32 %29 to i64
  %.not12.i = icmp ult i64 %28, %30
  br i1 %.not12.i, label %zend_optimizer_ignore_class.exit.thread, label %31

31:                                               ; preds = %21, %15
  %32 = load i8, ptr %17, align 8, !tbaa !133
  %33 = icmp eq i8 %32, 2
  br i1 %33, label %zend_optimizer_ignore_class.exit, label %zend_optimizer_ignore_class.exit.thread

zend_optimizer_ignore_class.exit:                 ; preds = %31
  %34 = getelementptr inbounds nuw i8, ptr %17, i64 504
  %35 = load ptr, ptr %34, align 8, !tbaa !20
  %.not13.i = icmp eq ptr %35, null
  %36 = icmp ne ptr %35, %16
  %spec.select.i = or i1 %.not13.i, %36
  br i1 %spec.select.i, label %37, label %zend_optimizer_ignore_class.exit.thread

37:                                               ; preds = %zend_optimizer_ignore_class.exit, %8
  %.not32 = icmp eq ptr %1, null
  br i1 %.not32, label %zend_optimizer_ignore_class.exit.thread, label %38

38:                                               ; preds = %37
  %39 = getelementptr inbounds nuw i8, ptr %1, i64 16
  %40 = load ptr, ptr %39, align 8, !tbaa !134
  %.not33 = icmp eq ptr %40, null
  br i1 %.not33, label %zend_optimizer_ignore_class.exit.thread, label %41

41:                                               ; preds = %38
  %42 = getelementptr inbounds nuw i8, ptr %40, i64 8
  %43 = load ptr, ptr %42, align 8, !tbaa !135
  %44 = getelementptr inbounds nuw i8, ptr %43, i64 16
  %45 = load i64, ptr %44, align 8, !tbaa !25
  %46 = getelementptr inbounds nuw i8, ptr %2, i64 16
  %47 = load i64, ptr %46, align 8, !tbaa !25
  %48 = icmp eq i64 %45, %47
  br i1 %48, label %49, label %zend_optimizer_ignore_class.exit.thread

49:                                               ; preds = %41
  %50 = getelementptr inbounds nuw i8, ptr %43, i64 24
  %51 = getelementptr inbounds nuw i8, ptr %2, i64 24
  %52 = tail call i32 @zend_binary_strcasecmp(ptr noundef nonnull %50, i64 noundef %45, ptr noundef nonnull %51, i64 noundef %45) #20
  %.not34 = icmp eq i32 %52, 0
  br i1 %.not34, label %53, label %zend_optimizer_ignore_class.exit.thread

53:                                               ; preds = %49
  %54 = load ptr, ptr %39, align 8, !tbaa !134
  br label %zend_optimizer_ignore_class.exit.thread

zend_optimizer_ignore_class.exit.thread:          ; preds = %31, %21, %zend_optimizer_ignore_class.exit, %zend_hash_find_ptr.exit, %53, %49, %41, %38, %37
  %.0 = phi ptr [ %7, %zend_hash_find_ptr.exit ], [ %54, %53 ], [ null, %49 ], [ null, %41 ], [ null, %38 ], [ null, %37 ], [ %17, %zend_optimizer_ignore_class.exit ], [ %17, %21 ], [ %17, %31 ]
  ret ptr %.0
}